target datalayout = "e-m:e-p270:32:32-p271:32:32-p272:64:64-i64:64-i128:128-f80:128-n8:16:32:64-S128"
target triple = "x86_64-pc-linux-gnu"

%union.pthread_mutex_t = type { %struct.__pthread_mutex_s }
%struct.__pthread_mutex_s = type { i32, i32, i32, i32, i32, i16, i16, %struct.__pthread_internal_list }
%struct.__pthread_internal_list = type { ptr, ptr }
%union.pthread_cond_t = type { %struct.__pthread_cond_s }
%struct.__pthread_cond_s = type { %union.__atomic_wide_counter, %union.__atomic_wide_counter, [2 x i32], [2 x i32], i32, i32, [2 x i32] }
%union.__atomic_wide_counter = type { i64 }
%struct.stepd_step_rec_t = type { ptr, ptr, i32, %union.pthread_cond_t, %union.pthread_mutex_t, %struct.slurm_step_id_msg, i32, i32, i32, i32, i32, i32, ptr, ptr, i32, i32, ptr, i32, i32, i32, i32, i32, ptr, ptr, ptr, ptr, i32, i32, i64, i64, i16, i32, ptr, ptr, ptr, i32, ptr, i32, ptr, i32, ptr, i16, i32, i32, i32, ptr, i32, ptr, ptr, ptr, ptr, i32, i32, ptr, ptr, i8, i8, i8, i64, i32, ptr, ptr, ptr, ptr, ptr, ptr, ptr, ptr, ptr, ptr, i32, i32, ptr, i8, %union.pthread_cond_t, %union.pthread_mutex_t, i64, ptr, i32, i32, i32, ptr, i64, ptr, ptr, i8, ptr, i16, ptr, ptr, ptr, ptr, ptr, ptr, i64, ptr, i64, ptr, i16, i8, i16, i32, ptr, i16, ptr, ptr, i16, ptr, ptr, ptr, i8 }
%struct.slurm_step_id_msg = type { i64, i32, i32, i32 }

@.str.26 = private unnamed_addr constant [6 x i8] c"req.c\00", align 1
@.str.36 = private unnamed_addr constant [45 x i8] c"%s:%d: %s: safe_write (%zu of %d) failed: %m\00", align 1
@.str.37 = private unnamed_addr constant [48 x i8] c"%s:%d: %s: safe_write (%zu of %d) partial write\00", align 1
@__func__._handle_uid = private unnamed_addr constant [12 x i8] c"_handle_uid\00", align 1

; Function Attrs: nounwind uwtable
define internal i32 @_handle_uid(i32 noundef %0, ptr noundef %1) #0 {
  %3 = alloca i32, align 4
  %4 = alloca i32, align 4
  %5 = alloca ptr, align 8
  %6 = alloca i64, align 8
  %7 = alloca ptr, align 8
  %8 = alloca i32, align 4
  %9 = alloca i32, align 4
  store i32 %0, ptr %4, align 4
  store ptr %1, ptr %5, align 8
  br label %10

10:                                               ; preds = %2
  call void @llvm.lifetime.start.p0(i64 8, ptr %6) #10
  store i64 4, ptr %6, align 8
  call void @llvm.lifetime.start.p0(i64 8, ptr %7) #10
  %11 = load ptr, ptr %5, align 8
  %12 = getelementptr inbounds nuw %struct.stepd_step_rec_t, ptr %11, i32 0, i32 46
  store ptr %12, ptr %7, align 8
  call void @llvm.lifetime.start.p0(i64 4, ptr %8) #10
  br label %13

13:                                               ; preds = %69, %32, %10
  %14 = load i64, ptr %6, align 8
  %15 = icmp ugt i64 %14, 0
  br i1 %15, label %16, label %70

16:                                               ; preds = %13
  %17 = load i32, ptr %4, align 4
  %18 = load ptr, ptr %7, align 8
  %19 = load i64, ptr %6, align 8
  %20 = call i64 @write(i32 noundef %17, ptr noundef %18, i64 noundef %19)
  %21 = trunc i64 %20 to i32
  store i32 %21, ptr %8, align 4
  %22 = load i32, ptr %8, align 4
  %23 = icmp slt i32 %22, 0
  br i1 %23, label %24, label %45

24:                                               ; preds = %16
  %25 = call ptr @__errno_location() #11
  %26 = load i32, ptr %25, align 4
  %27 = icmp eq i32 %26, 11
  br i1 %27, label %32, label %28

28:                                               ; preds = %24
  %29 = call ptr @__errno_location() #11
  %30 = load i32, ptr %29, align 4
  %31 = icmp eq i32 %30, 4
  br i1 %31, label %32, label %33

32:                                               ; preds = %28, %24
  br label %13, !llvm.loop !31

33:                                               ; preds = %28
  br label %34

34:                                               ; preds = %33
  br label %35

35:                                               ; preds = %34
  %36 = call i32 @get_log_level()
  %37 = icmp sge i32 %36, 5
  br i1 %37, label %38, label %40

38:                                               ; preds = %35
  %39 = load i64, ptr %6, align 8
  call void (i32, ptr, ...) @log_var(i32 noundef 5, ptr noundef @.str.36, ptr noundef @.str.26, i32 noundef 1018, ptr noundef @__func__._handle_uid, i64 noundef %39, i32 noundef 4)
  br label %40

40:                                               ; preds = %38, %35
  br label %41

41:                                               ; preds = %40
  br label %42

42:                                               ; preds = %41
  br label %43

43:                                               ; preds = %42
  br label %44

44:                                               ; preds = %43
  store i32 10, ptr %9, align 4
  br label %71

45:                                               ; preds = %16
  %46 = load i32, ptr %8, align 4
  %47 = load ptr, ptr %7, align 8
  %48 = sext i32 %46 to i64
  %49 = getelementptr inbounds i8, ptr %47, i64 %48
  store ptr %49, ptr %7, align 8
  %50 = load i32, ptr %8, align 4
  %51 = sext i32 %50 to i64
  %52 = load i64, ptr %6, align 8
  %53 = sub i64 %52, %51
  store i64 %53, ptr %6, align 8
  %54 = load i64, ptr %6, align 8
  %55 = icmp ugt i64 %54, 0
  br i1 %55, label %56, label %68

56:                                               ; preds = %45
  br label %57

57:                                               ; preds = %56
  br label %58

58:                                               ; preds = %57
  %59 = call i32 @get_log_level()
  %60 = icmp sge i32 %59, 7
  br i1 %60, label %61, label %63

61:                                               ; preds = %58
  %62 = load i64, ptr %6, align 8
  call void (i32, ptr, ...) @log_var(i32 noundef 7, ptr noundef @.str.37, ptr noundef @.str.26, i32 noundef 1018, ptr noundef @__func__._handle_uid, i64 noundef %62, i32 noundef 4)
  br label %63

63:                                               ; preds = %61, %58
  br label %64

64:                                               ; preds = %63
  br label %65

65:                                               ; preds = %64
  br label %66

66:                                               ; preds = %65
  br label %67

67:                                               ; preds = %66
  br label %68

68:                                               ; preds = %67, %45
  br label %69

69:                                               ; preds = %68
  br label %13, !llvm.loop !31

70:                                               ; preds = %13
  store i32 0, ptr %9, align 4
  br label %71

71:                                               ; preds = %44, %70
  call void @llvm.lifetime.end.p0(i64 4, ptr %8) #10
  call void @llvm.lifetime.end.p0(i64 8, ptr %7) #10
  call void @llvm.lifetime.end.p0(i64 8, ptr %6) #10
  %72 = load i32, ptr %9, align 4
  switch i32 %72, label %78 [
    i32 0, label %73
    i32 10, label %75
  ]

73:                                               ; preds = %71
  br label %74

74:                                               ; preds = %73
  store i32 0, ptr %3, align 4
  br label %76

75:                                               ; preds = %71
  store i32 -1, ptr %3, align 4
  br label %76

76:                                               ; preds = %75, %74
  %77 = load i32, ptr %3, align 4
  ret i32 %77

78:                                               ; preds = %71
  unreachable
}